; Function Attrs: null_pointer_is_valid sspstrong uwtable
define internal zeroext i1 @capture_sll(ptr noundef %0, i32 %1, i32 noundef %2, ptr noundef %3, ptr noundef %4) #0 {
  %6 = icmp ugt i32 %2, 15
  br i1 %6, label %7, label %25

7:                                                ; preds = %5
  %8 = getelementptr i8, ptr %0, i64 14
  %.val = load i8, ptr %8, align 1
  %9 = getelementptr i8, ptr %0, i64 15
  %.val21 = load i8, ptr %9, align 1
  %10 = zext i8 %.val to i16
  %11 = shl nuw i16 %10, 8
  %12 = zext i8 %.val21 to i16
  %13 = or disjoint i16 %11, %12
  %14 = zext i16 %13 to i32
  %15 = icmp ult i16 %13, 1537
  br i1 %15, label %16, label %.sink.split

16:                                               ; preds = %7
  %17 = getelementptr i8, ptr %0, i64 2
  %.val22 = load i8, ptr %17, align 1
  %18 = getelementptr i8, ptr %0, i64 3
  %.val23 = load i8, ptr %18, align 1
  %19 = zext i8 %.val22 to i32
  %20 = shl nuw nsw i32 %19, 8
  %21 = zext i8 %.val23 to i32
  %22 = or disjoint i32 %20, %21
  %23 = tail call zeroext i1 @try_capture_dissector(ptr noundef nonnull @.str.3, i32 noundef %22, ptr noundef %0, i32 noundef 16, i32 noundef %2, ptr noundef %3, ptr noundef %4)
  br i1 %23, label %25, label %.sink.split

.sink.split:                                      ; preds = %7, %16
  %.str.34.sink = phi ptr [ @.str.15, %16 ], [ @.str.34, %7 ]
  %24 = tail call zeroext i1 @try_capture_dissector(ptr noundef nonnull %.str.34.sink, i32 noundef %14, ptr noundef %0, i32 noundef 16, i32 noundef %2, ptr noundef %3, ptr noundef %4)
  br label %25

25:                                               ; preds = %.sink.split, %16, %5
  %.0 = phi i1 [ false, %5 ], [ true, %16 ], [ %24, %.sink.split ]
  ret i1 %.0
}